; Function Attrs: mustprogress uwtable
define ptr @uloc_toUnicodeLocaleKey_77(ptr noundef %0) local_unnamed_addr #1 personality ptr @__gxx_personality_v0 {
  %2 = alloca %"class.std::optional.30", align 8
  %3 = icmp eq ptr %0, null
  br i1 %3, label %15, label %4

4:                                                ; preds = %1
  %5 = load i8, ptr %0, align 1, !tbaa !20
  %6 = icmp eq i8 %5, 0
  br i1 %6, label %15, label %7

7:                                                ; preds = %4
  %8 = tail call noundef i64 @strlen(ptr noundef nonnull dereferenceable(1) %0) #20
  call void @llvm.lifetime.start.p0(i64 24, ptr nonnull %2) #20, !noalias !138
  call void @_Z19ulocimp_toBcpKey_77St17basic_string_viewIcSt11char_traitsIcEE(ptr dead_on_unwind nonnull writable sret(%"class.std::optional.30") align 8 %2, i64 %8, ptr nonnull %0), !noalias !138
  %9 = getelementptr inbounds nuw i8, ptr %2, i64 16
  %10 = load i8, ptr %9, align 8, !tbaa !141, !range !74, !noalias !138, !noundef !75
  %11 = trunc nuw i8 %10 to i1
  br i1 %11, label %_Z31ulocimp_toBcpKeyWithFallback_77St17basic_string_viewIcSt11char_traitsIcEE.exit.thread10, label %12

_Z31ulocimp_toBcpKeyWithFallback_77St17basic_string_viewIcSt11char_traitsIcEE.exit.thread10: ; preds = %7
  %.sroa.4.0..sroa_idx12 = getelementptr inbounds nuw i8, ptr %2, i64 8
  %.sroa.4.0.copyload13 = load ptr, ptr %.sroa.4.0..sroa_idx12, align 8
  br label %.sink.split

12:                                               ; preds = %7
  %13 = trunc i64 %8 to i32
  %14 = call noundef zeroext i1 @_Z27ultag_isUnicodeLocaleKey_77PKci(ptr noundef nonnull %0, i32 noundef %13), !noalias !138
  br i1 %14, label %.sink.split, label %_Z31ulocimp_toBcpKeyWithFallback_77St17basic_string_viewIcSt11char_traitsIcEE.exit

_Z31ulocimp_toBcpKeyWithFallback_77St17basic_string_viewIcSt11char_traitsIcEE.exit: ; preds = %12
  %.sroa.6.0.copyload.pre = load i8, ptr %9, align 8
  %.sroa.6.0.copyload.pre.fr = freeze i8 %.sroa.6.0.copyload.pre
  %.pre = trunc i8 %.sroa.6.0.copyload.pre.fr to i1
  %.sroa.4.0..sroa_idx = getelementptr inbounds nuw i8, ptr %2, i64 8
  %.sroa.4.0.copyload = load ptr, ptr %.sroa.4.0..sroa_idx, align 8
  call void @llvm.lifetime.end.p0(i64 24, ptr nonnull %2) #20, !noalias !138
  %spec.select = select i1 %.pre, ptr %.sroa.4.0.copyload, ptr null
  br label %15

.sink.split:                                      ; preds = %12, %_Z31ulocimp_toBcpKeyWithFallback_77St17basic_string_viewIcSt11char_traitsIcEE.exit.thread10
  %.0.ph = phi ptr [ %.sroa.4.0.copyload13, %_Z31ulocimp_toBcpKeyWithFallback_77St17basic_string_viewIcSt11char_traitsIcEE.exit.thread10 ], [ %0, %12 ]
  call void @llvm.lifetime.end.p0(i64 24, ptr nonnull %2) #20, !noalias !138
  br label %15

15:                                               ; preds = %_Z31ulocimp_toBcpKeyWithFallback_77St17basic_string_viewIcSt11char_traitsIcEE.exit, %.sink.split, %1, %4
  %.0 = phi ptr [ null, %4 ], [ null, %1 ], [ %spec.select, %_Z31ulocimp_toBcpKeyWithFallback_77St17basic_string_viewIcSt11char_traitsIcEE.exit ], [ %.0.ph, %.sink.split ]
  ret ptr %.0
}